target datalayout = "e-m:e-p270:32:32-p271:32:32-p272:64:64-i64:64-i128:128-f80:128-n8:16:32:64-S128"
target triple = "x86_64-pc-linux-gnu"

%struct._object = type { %union.anon, ptr }
%union.anon = type { i64 }

@.str.65 = private unnamed_addr constant [40 x i8] c"../cpython/Modules/_testcapi/pyatomic.c\00", align 1
@_Py_NoneStruct = external global %struct._object, align 8
@.str.256 = private unnamed_addr constant [47 x i8] c"_Py_atomic_exchange_int16(&x, y) == (int16_t)0\00", align 1
@__PRETTY_FUNCTION__.test_atomic_exchange_int16 = private unnamed_addr constant [61 x i8] c"PyObject *test_atomic_exchange_int16(PyObject *, PyObject *)\00", align 1
@.str.257 = private unnamed_addr constant [16 x i8] c"x == (int16_t)1\00", align 1
@.str.258 = private unnamed_addr constant [47 x i8] c"_Py_atomic_exchange_int16(&x, z) == (int16_t)1\00", align 1
@.str.259 = private unnamed_addr constant [16 x i8] c"x == (int16_t)2\00", align 1
@.str.260 = private unnamed_addr constant [47 x i8] c"_Py_atomic_exchange_int16(&x, y) == (int16_t)2\00", align 1

; Function Attrs: inlinehint nounwind uwtable
define internal signext i16 @_Py_atomic_exchange_int16(ptr noundef %0, i16 noundef signext %1) #3 {
  %3 = alloca ptr, align 8
  %4 = alloca i16, align 2
  %5 = alloca i16, align 2
  %6 = alloca i16, align 2
  store ptr %0, ptr %3, align 8, !tbaa !18
  store i16 %1, ptr %4, align 2, !tbaa !9
  %7 = load ptr, ptr %3, align 8, !tbaa !18
  %8 = load i16, ptr %4, align 2, !tbaa !9
  store i16 %8, ptr %5, align 2, !tbaa !9
  %9 = load i16, ptr %5, align 2
  %10 = atomicrmw xchg ptr %7, i16 %9 seq_cst, align 2
  store i16 %10, ptr %6, align 2
  %11 = load i16, ptr %6, align 2, !tbaa !9
  ret i16 %11
}

; Function Attrs: nounwind uwtable
define internal ptr @test_atomic_exchange_int16(ptr noundef %0, ptr noundef %1) #0 {
  %3 = alloca ptr, align 8
  %4 = alloca ptr, align 8
  %5 = alloca i16, align 2
  %6 = alloca i16, align 2
  %7 = alloca i16, align 2
  store ptr %0, ptr %3, align 8, !tbaa !3
  store ptr %1, ptr %4, align 8, !tbaa !3
  call void @llvm.lifetime.start.p0(i64 2, ptr %5) #5
  store i16 0, ptr %5, align 2, !tbaa !9
  call void @llvm.lifetime.start.p0(i64 2, ptr %6) #5
  store i16 1, ptr %6, align 2, !tbaa !9
  call void @llvm.lifetime.start.p0(i64 2, ptr %7) #5
  store i16 2, ptr %7, align 2, !tbaa !9
  %8 = load i16, ptr %6, align 2, !tbaa !9
  %9 = call signext i16 @_Py_atomic_exchange_int16(ptr noundef %5, i16 noundef signext %8)
  %10 = sext i16 %9 to i32
  %11 = icmp eq i32 %10, 0
  br i1 %11, label %12, label %13

12:                                               ; preds = %2
  br label %15

13:                                               ; preds = %2
  call void @__assert_fail(ptr noundef @.str.256, ptr noundef @.str.65, i32 noundef 89, ptr noundef @__PRETTY_FUNCTION__.test_atomic_exchange_int16) #6
  unreachable

14:                                               ; No predecessors!
  br label %15

15:                                               ; preds = %14, %12
  %16 = load i16, ptr %5, align 2, !tbaa !9
  %17 = sext i16 %16 to i32
  %18 = icmp eq i32 %17, 1
  br i1 %18, label %19, label %20

19:                                               ; preds = %15
  br label %22

20:                                               ; preds = %15
  call void @__assert_fail(ptr noundef @.str.257, ptr noundef @.str.65, i32 noundef 89, ptr noundef @__PRETTY_FUNCTION__.test_atomic_exchange_int16) #6
  unreachable

21:                                               ; No predecessors!
  br label %22

22:                                               ; preds = %21, %19
  %23 = load i16, ptr %7, align 2, !tbaa !9
  %24 = call signext i16 @_Py_atomic_exchange_int16(ptr noundef %5, i16 noundef signext %23)
  %25 = sext i16 %24 to i32
  %26 = icmp eq i32 %25, 1
  br i1 %26, label %27, label %28

27:                                               ; preds = %22
  br label %30

28:                                               ; preds = %22
  call void @__assert_fail(ptr noundef @.str.258, ptr noundef @.str.65, i32 noundef 89, ptr noundef @__PRETTY_FUNCTION__.test_atomic_exchange_int16) #6
  unreachable

29:                                               ; No predecessors!
  br label %30

30:                                               ; preds = %29, %27
  %31 = load i16, ptr %5, align 2, !tbaa !9
  %32 = sext i16 %31 to i32
  %33 = icmp eq i32 %32, 2
  br i1 %33, label %34, label %35

34:                                               ; preds = %30
  br label %37

35:                                               ; preds = %30
  call void @__assert_fail(ptr noundef @.str.259, ptr noundef @.str.65, i32 noundef 89, ptr noundef @__PRETTY_FUNCTION__.test_atomic_exchange_int16) #6
  unreachable

36:                                               ; No predecessors!
  br label %37

37:                                               ; preds = %36, %34
  %38 = load i16, ptr %6, align 2, !tbaa !9
  %39 = call signext i16 @_Py_atomic_exchange_int16(ptr noundef %5, i16 noundef signext %38)
  %40 = sext i16 %39 to i32
  %41 = icmp eq i32 %40, 2
  br i1 %41, label %42, label %43

42:                                               ; preds = %37
  br label %45

43:                                               ; preds = %37
  call void @__assert_fail(ptr noundef @.str.260, ptr noundef @.str.65, i32 noundef 89, ptr noundef @__PRETTY_FUNCTION__.test_atomic_exchange_int16) #6
  unreachable

44:                                               ; No predecessors!
  br label %45

45:                                               ; preds = %44, %42
  %46 = load i16, ptr %5, align 2, !tbaa !9
  %47 = sext i16 %46 to i32
  %48 = icmp eq i32 %47, 1
  br i1 %48, label %49, label %50

49:                                               ; preds = %45
  br label %52

50:                                               ; preds = %45
  call void @__assert_fail(ptr noundef @.str.257, ptr noundef @.str.65, i32 noundef 89, ptr noundef @__PRETTY_FUNCTION__.test_atomic_exchange_int16) #6
  unreachable

51:                                               ; No predecessors!
  br label %52

52:                                               ; preds = %51, %49
  call void @llvm.lifetime.end.p0(i64 2, ptr %7) #5
  call void @llvm.lifetime.end.p0(i64 2, ptr %6) #5
  call void @llvm.lifetime.end.p0(i64 2, ptr %5) #5
  ret ptr @_Py_NoneStruct
}